target datalayout = "e-m:e-p270:32:32-p271:32:32-p272:64:64-i64:64-i128:128-f80:128-n8:16:32:64-S128"
target triple = "x86_64-pc-linux-gnu"

%struct.bufferevent_ssl = type { %struct.bufferevent_private, ptr, ptr, ptr, ptr, %struct.bio_data_counts, i64, [3 x i32], i8, i64 }
%struct.bufferevent_private = type { %struct.bufferevent, ptr, i8, i16, i16, i16, i32, i32, %struct.event_callback, i32, i32, ptr, i64, i64, ptr, %union.anon.7, ptr }
%struct.bufferevent = type { ptr, ptr, %struct.event, %struct.event, ptr, ptr, %struct.event_watermark, %struct.event_watermark, ptr, ptr, ptr, ptr, %struct.timeval, %struct.timeval, i16 }
%struct.event = type { %struct.event_callback, %union.anon.0, i32, i16, i16, ptr, %union.anon.2, %struct.timeval }
%union.anon.0 = type { %struct.anon.1 }
%struct.anon.1 = type { ptr, ptr }
%union.anon.2 = type { %struct.anon.3 }
%struct.anon.3 = type { %struct.anon.4, %struct.timeval }
%struct.anon.4 = type { ptr, ptr }
%struct.event_watermark = type { i64, i64 }
%struct.timeval = type { i64, i64 }
%struct.event_callback = type { %struct.anon, i16, i8, i8, %union.anon, ptr }
%struct.anon = type { ptr, ptr }
%union.anon = type { ptr }
%union.anon.7 = type { %struct.sockaddr_in6 }
%struct.sockaddr_in6 = type { i16, i16, i32, %struct.in6_addr, i32 }
%struct.in6_addr = type { %union.anon.8 }
%union.anon.8 = type { [4 x i32] }
%struct.bio_data_counts = type { i64, i64 }

; Function Attrs: nounwind uwtable
define internal void @init_bio_counts(ptr noundef %0) #0 {
  %2 = alloca ptr, align 8
  %3 = alloca ptr, align 8
  %4 = alloca ptr, align 8
  store ptr %0, ptr %2, align 8
  call void @llvm.lifetime.start.p0(i64 8, ptr %3) #5
  call void @llvm.lifetime.start.p0(i64 8, ptr %4) #5
  %5 = load ptr, ptr %2, align 8
  %6 = getelementptr inbounds nuw %struct.bufferevent_ssl, ptr %5, i32 0, i32 2
  %7 = load ptr, ptr %6, align 8
  %8 = call ptr @SSL_get_wbio(ptr noundef %7)
  store ptr %8, ptr %4, align 8
  %9 = load ptr, ptr %4, align 8
  %10 = icmp ne ptr %9, null
  br i1 %10, label %11, label %14

11:                                               ; preds = %1
  %12 = load ptr, ptr %4, align 8
  %13 = call i64 @BIO_number_written(ptr noundef %12)
  br label %15

14:                                               ; preds = %1
  br label %15

15:                                               ; preds = %14, %11
  %16 = phi i64 [ %13, %11 ], [ 0, %14 ]
  %17 = load ptr, ptr %2, align 8
  %18 = getelementptr inbounds nuw %struct.bufferevent_ssl, ptr %17, i32 0, i32 5
  %19 = getelementptr inbounds nuw %struct.bio_data_counts, ptr %18, i32 0, i32 0
  store i64 %16, ptr %19, align 8
  %20 = load ptr, ptr %2, align 8
  %21 = getelementptr inbounds nuw %struct.bufferevent_ssl, ptr %20, i32 0, i32 2
  %22 = load ptr, ptr %21, align 8
  %23 = call ptr @SSL_get_rbio(ptr noundef %22)
  store ptr %23, ptr %3, align 8
  %24 = load ptr, ptr %3, align 8
  %25 = icmp ne ptr %24, null
  br i1 %25, label %26, label %29

26:                                               ; preds = %15
  %27 = load ptr, ptr %3, align 8
  %28 = call i64 @BIO_number_read(ptr noundef %27)
  br label %30

29:                                               ; preds = %15
  br label %30

30:                                               ; preds = %29, %26
  %31 = phi i64 [ %28, %26 ], [ 0, %29 ]
  %32 = load ptr, ptr %2, align 8
  %33 = getelementptr inbounds nuw %struct.bufferevent_ssl, ptr %32, i32 0, i32 5
  %34 = getelementptr inbounds nuw %struct.bio_data_counts, ptr %33, i32 0, i32 1
  store i64 %31, ptr %34, align 8
  call void @llvm.lifetime.end.p0(i64 8, ptr %4) #5
  call void @llvm.lifetime.end.p0(i64 8, ptr %3) #5
  ret void
}