; Function Attrs: nounwind uwtable
define internal void @init_bio_counts(ptr noundef captures(none) initializes((552, 568)) %0) #0 {
  %2 = getelementptr inbounds nuw i8, ptr %0, i64 528
  %3 = load ptr, ptr %2, align 8
  %4 = tail call ptr @SSL_get_wbio(ptr noundef %3) #5
  %.not = icmp eq ptr %4, null
  br i1 %.not, label %7, label %5

5:                                                ; preds = %1
  %6 = tail call i64 @BIO_number_written(ptr noundef nonnull %4) #5
  br label %7

7:                                                ; preds = %1, %5
  %8 = phi i64 [ %6, %5 ], [ 0, %1 ]
  %9 = getelementptr inbounds nuw i8, ptr %0, i64 552
  store i64 %8, ptr %9, align 8
  %10 = load ptr, ptr %2, align 8
  %11 = tail call ptr @SSL_get_rbio(ptr noundef %10) #5
  %.not9 = icmp eq ptr %11, null
  br i1 %.not9, label %14, label %12

12:                                               ; preds = %7
  %13 = tail call i64 @BIO_number_read(ptr noundef nonnull %11) #5
  br label %14

14:                                               ; preds = %7, %12
  %15 = phi i64 [ %13, %12 ], [ 0, %7 ]
  %16 = getelementptr inbounds nuw i8, ptr %0, i64 560
  store i64 %15, ptr %16, align 8
  ret void
}